target datalayout = "e-m:e-p270:32:32-p271:32:32-p272:64:64-i64:64-i128:128-f80:128-n8:16:32:64-S128"
target triple = "x86_64-pc-linux-gnu"

%"class.facebook::yoga::Node" = type { i8, ptr, ptr, ptr, ptr, %"class.facebook::yoga::Style", %"struct.facebook::yoga::LayoutResults", i64, i64, ptr, %"class.std::vector", ptr, %"struct.std::array.8" }
%"class.facebook::yoga::Style" = type { i32, %"class.facebook::yoga::StyleValueHandle", %"class.facebook::yoga::StyleValueHandle", %"class.facebook::yoga::StyleValueHandle", %"class.facebook::yoga::StyleValueHandle", %"struct.std::array", %"struct.std::array", %"struct.std::array", %"struct.std::array", %"struct.std::array.0", %"struct.std::array.1", %"struct.std::array.1", %"struct.std::array.1", %"class.facebook::yoga::StyleValueHandle", %"class.facebook::yoga::StyleValuePool" }
%"struct.std::array" = type { [9 x %"class.facebook::yoga::StyleValueHandle"] }
%"struct.std::array.0" = type { [3 x %"class.facebook::yoga::StyleValueHandle"] }
%"struct.std::array.1" = type { [2 x %"class.facebook::yoga::StyleValueHandle"] }
%"class.facebook::yoga::StyleValueHandle" = type { i16 }
%"class.facebook::yoga::StyleValuePool" = type { %"class.facebook::yoga::SmallValueBuffer" }
%"class.facebook::yoga::SmallValueBuffer" = type { i16, %"struct.std::array.2", %"class.std::bitset", %"class.std::unique_ptr" }
%"struct.std::array.2" = type { [4 x i32] }
%"class.std::bitset" = type { %"struct.std::_Base_bitset" }
%"struct.std::_Base_bitset" = type { i64 }
%"class.std::unique_ptr" = type { %"struct.std::__uniq_ptr_data" }
%"struct.std::__uniq_ptr_data" = type { %"class.std::__uniq_ptr_impl" }
%"class.std::__uniq_ptr_impl" = type { %"class.std::tuple" }
%"class.std::tuple" = type { %"struct.std::_Tuple_impl" }
%"struct.std::_Tuple_impl" = type { %"struct.std::_Head_base.4" }
%"struct.std::_Head_base.4" = type { ptr }
%"struct.facebook::yoga::LayoutResults" = type { i32, %"struct.facebook::yoga::FloatOptional", i32, i32, i8, i32, %"struct.std::array.5", %"struct.facebook::yoga::CachedMeasurement", i8, %"struct.std::array.6", %"struct.std::array.6", %"struct.std::array.7", %"struct.std::array.7", %"struct.std::array.7", %"struct.std::array.7" }
%"struct.facebook::yoga::FloatOptional" = type { float }
%"struct.std::array.5" = type { [8 x %"struct.facebook::yoga::CachedMeasurement"] }
%"struct.facebook::yoga::CachedMeasurement" = type { float, float, i32, i32, float, float }
%"struct.std::array.6" = type { [2 x float] }
%"struct.std::array.7" = type { [4 x float] }
%"class.std::vector" = type { %"struct.std::_Vector_base" }
%"struct.std::_Vector_base" = type { %"struct.std::_Vector_base<facebook::yoga::Node *, std::allocator<facebook::yoga::Node *>>::_Vector_impl" }
%"struct.std::_Vector_base<facebook::yoga::Node *, std::allocator<facebook::yoga::Node *>>::_Vector_impl" = type { %"struct.std::_Vector_base<facebook::yoga::Node *, std::allocator<facebook::yoga::Node *>>::_Vector_impl_data" }
%"struct.std::_Vector_base<facebook::yoga::Node *, std::allocator<facebook::yoga::Node *>>::_Vector_impl_data" = type { ptr, ptr, ptr }
%"struct.std::array.8" = type { [2 x %"class.facebook::yoga::StyleSizeLength"] }
%"class.facebook::yoga::StyleSizeLength" = type <{ %"struct.facebook::yoga::FloatOptional", i8, [3 x i8] }>
%"class.__gnu_cxx::__normal_iterator" = type { ptr }

; Function Attrs: mustprogress nounwind uwtable
define linkonce_odr noundef nonnull align 8 dereferenceable(8) ptr @_ZNK9__gnu_cxx17__normal_iteratorIPPN8facebook4yoga4NodeESt6vectorIS4_SaIS4_EEE4baseEv(ptr noundef nonnull align 8 dereferenceable(8) %0) #7 comdat align 2 {
  %2 = alloca ptr, align 8
  store ptr %0, ptr %2, align 8, !tbaa !92
  %3 = load ptr, ptr %2, align 8
  %4 = getelementptr inbounds nuw %"class.__gnu_cxx::__normal_iterator", ptr %3, i32 0, i32 0
  ret ptr %4
}

; Function Attrs: mustprogress nounwind uwtable
define linkonce_odr void @_ZN9__gnu_cxx17__normal_iteratorIPPN8facebook4yoga4NodeESt6vectorIS4_SaIS4_EEEC2ERKS5_(ptr noundef nonnull align 8 dereferenceable(8) %0, ptr noundef nonnull align 8 dereferenceable(8) %1) unnamed_addr #7 comdat align 2 {
  %3 = alloca ptr, align 8
  %4 = alloca ptr, align 8
  store ptr %0, ptr %3, align 8, !tbaa !92
  store ptr %1, ptr %4, align 8, !tbaa !232
  %5 = load ptr, ptr %3, align 8
  %6 = getelementptr inbounds nuw %"class.__gnu_cxx::__normal_iterator", ptr %5, i32 0, i32 0
  %7 = load ptr, ptr %4, align 8, !tbaa !232
  %8 = load ptr, ptr %7, align 8, !tbaa !94
  store ptr %8, ptr %6, align 8, !tbaa !95
  ret void
}

; Function Attrs: mustprogress nounwind uwtable
define linkonce_odr noundef nonnull align 8 dereferenceable(8) ptr @_ZN9__gnu_cxx17__normal_iteratorIPPN8facebook4yoga4NodeESt6vectorIS4_SaIS4_EEEppEv(ptr noundef nonnull align 8 dereferenceable(8) %0) #7 comdat align 2 {
  %2 = alloca ptr, align 8
  store ptr %0, ptr %2, align 8, !tbaa !92
  %3 = load ptr, ptr %2, align 8
  %4 = getelementptr inbounds nuw %"class.__gnu_cxx::__normal_iterator", ptr %3, i32 0, i32 0
  %5 = load ptr, ptr %4, align 8, !tbaa !95
  %6 = getelementptr inbounds nuw ptr, ptr %5, i32 1
  store ptr %6, ptr %4, align 8, !tbaa !95
  ret ptr %3
}

; Function Attrs: mustprogress nounwind uwtable
define linkonce_odr void @_ZN8facebook4yoga4Node8setOwnerEPS1_(ptr noundef nonnull align 8 dereferenceable(584) %0, ptr noundef %1) #7 comdat align 2 {
  %3 = alloca ptr, align 8
  %4 = alloca ptr, align 8
  store ptr %0, ptr %3, align 8, !tbaa !4
  store ptr %1, ptr %4, align 8, !tbaa !4
  %5 = load ptr, ptr %3, align 8
  %6 = load ptr, ptr %4, align 8, !tbaa !4
  %7 = getelementptr inbounds nuw %"class.facebook::yoga::Node", ptr %5, i32 0, i32 9
  store ptr %6, ptr %7, align 8, !tbaa !64
  ret void
}

; Function Attrs: inlinehint mustprogress nounwind uwtable
define linkonce_odr hidden noundef ptr @_ZN8facebook4yoga10resolveRefEP6YGNode(ptr noundef %0) #6 comdat {
  %2 = alloca ptr, align 8
  store ptr %0, ptr %2, align 8, !tbaa !145
  %3 = load ptr, ptr %2, align 8, !tbaa !145
  ret ptr %3
}

; Function Attrs: mustprogress nounwind uwtable
define linkonce_odr noundef ptr @_ZNK8facebook4yoga4Node8getOwnerEv(ptr noundef nonnull align 8 dereferenceable(584) %0) #7 comdat align 2 {
  %2 = alloca ptr, align 8
  store ptr %0, ptr %2, align 8, !tbaa !4
  %3 = load ptr, ptr %2, align 8
  %4 = getelementptr inbounds nuw %"class.facebook::yoga::Node", ptr %3, i32 0, i32 9
  %5 = load ptr, ptr %4, align 8, !tbaa !64
  ret ptr %5
}

; Function Attrs: mustprogress nounwind uwtable
define linkonce_odr noundef nonnull align 8 dereferenceable(8) ptr @_ZNK9__gnu_cxx17__normal_iteratorIPPN8facebook4yoga4NodeESt6vectorIS4_SaIS4_EEEdeEv(ptr noundef nonnull align 8 dereferenceable(8) %0) #7 comdat align 2 {
  %2 = alloca ptr, align 8
  store ptr %0, ptr %2, align 8, !tbaa !92
  %3 = load ptr, ptr %2, align 8
  %4 = getelementptr inbounds nuw %"class.__gnu_cxx::__normal_iterator", ptr %3, i32 0, i32 0
  %5 = load ptr, ptr %4, align 8, !tbaa !95
  ret ptr %5
}

; Function Attrs: mustprogress nounwind uwtable
define linkonce_odr noundef zeroext i1 @_ZN9__gnu_cxxeqIPPN8facebook4yoga4NodeESt6vectorIS4_SaIS4_EEEEbRKNS_17__normal_iteratorIT_T0_EESE_QrqXeqcldtfp_4baseEcldtfp0_4baseERSt14convertible_toIbEE(ptr noundef nonnull align 8 dereferenceable(8) %0, ptr noundef nonnull align 8 dereferenceable(8) %1) #7 comdat {
  %3 = alloca ptr, align 8
  %4 = alloca ptr, align 8
  store ptr %0, ptr %3, align 8, !tbaa !92
  store ptr %1, ptr %4, align 8, !tbaa !92
  %5 = load ptr, ptr %3, align 8, !tbaa !92
  %6 = call noundef nonnull align 8 dereferenceable(8) ptr @_ZNK9__gnu_cxx17__normal_iteratorIPPN8facebook4yoga4NodeESt6vectorIS4_SaIS4_EEE4baseEv(ptr noundef nonnull align 8 dereferenceable(8) %5) #3
  %7 = load ptr, ptr %6, align 8, !tbaa !94
  %8 = load ptr, ptr %4, align 8, !tbaa !92
  %9 = call noundef nonnull align 8 dereferenceable(8) ptr @_ZNK9__gnu_cxx17__normal_iteratorIPPN8facebook4yoga4NodeESt6vectorIS4_SaIS4_EEE4baseEv(ptr noundef nonnull align 8 dereferenceable(8) %8) #3
  %10 = load ptr, ptr %9, align 8, !tbaa !94
  %11 = icmp eq ptr %7, %10
  ret i1 %11
}

; Function Attrs: mustprogress nounwind uwtable
define linkonce_odr ptr @_ZNSt6vectorIPN8facebook4yoga4NodeESaIS3_EE3endEv(ptr noundef nonnull align 8 dereferenceable(24) %0) #7 comdat align 2 {
  %2 = alloca %"class.__gnu_cxx::__normal_iterator", align 8
  %3 = alloca ptr, align 8
  store ptr %0, ptr %3, align 8, !tbaa !82
  %4 = load ptr, ptr %3, align 8
  %5 = getelementptr inbounds nuw %"struct.std::_Vector_base", ptr %4, i32 0, i32 0
  %6 = getelementptr inbounds nuw %"struct.std::_Vector_base<facebook::yoga::Node *, std::allocator<facebook::yoga::Node *>>::_Vector_impl_data", ptr %5, i32 0, i32 1
  call void @_ZN9__gnu_cxx17__normal_iteratorIPPN8facebook4yoga4NodeESt6vectorIS4_SaIS4_EEEC2ERKS5_(ptr noundef nonnull align 8 dereferenceable(8) %2, ptr noundef nonnull align 8 dereferenceable(8) %6) #3
  %7 = getelementptr inbounds nuw %"class.__gnu_cxx::__normal_iterator", ptr %2, i32 0, i32 0
  %8 = load ptr, ptr %7, align 8
  ret ptr %8
}

; Function Attrs: mustprogress nounwind uwtable
define linkonce_odr ptr @_ZNSt6vectorIPN8facebook4yoga4NodeESaIS3_EE5beginEv(ptr noundef nonnull align 8 dereferenceable(24) %0) #7 comdat align 2 {
  %2 = alloca %"class.__gnu_cxx::__normal_iterator", align 8
  %3 = alloca ptr, align 8
  store ptr %0, ptr %3, align 8, !tbaa !82
  %4 = load ptr, ptr %3, align 8
  %5 = getelementptr inbounds nuw %"struct.std::_Vector_base", ptr %4, i32 0, i32 0
  %6 = getelementptr inbounds nuw %"struct.std::_Vector_base<facebook::yoga::Node *, std::allocator<facebook::yoga::Node *>>::_Vector_impl_data", ptr %5, i32 0, i32 0
  call void @_ZN9__gnu_cxx17__normal_iteratorIPPN8facebook4yoga4NodeESt6vectorIS4_SaIS4_EEEC2ERKS5_(ptr noundef nonnull align 8 dereferenceable(8) %2, ptr noundef nonnull align 8 dereferenceable(8) %6) #3
  %7 = getelementptr inbounds nuw %"class.__gnu_cxx::__normal_iterator", ptr %2, i32 0, i32 0
  %8 = load ptr, ptr %7, align 8
  ret ptr %8
}

; Function Attrs: mustprogress uwtable
define void @_ZN8facebook4yoga4Node21cloneChildrenIfNeededEv(ptr noundef nonnull align 8 dereferenceable(584) %0) #4 align 2 {
  %2 = alloca ptr, align 8
  %3 = alloca i64, align 8
  %4 = alloca ptr, align 8
  %5 = alloca %"class.__gnu_cxx::__normal_iterator", align 8
  %6 = alloca %"class.__gnu_cxx::__normal_iterator", align 8
  %7 = alloca ptr, align 8
  store ptr %0, ptr %2, align 8, !tbaa !4
  %8 = load ptr, ptr %2, align 8
  call void @llvm.lifetime.start.p0(i64 8, ptr %3) #3
  store i64 0, ptr %3, align 8, !tbaa !108
  call void @llvm.lifetime.start.p0(i64 8, ptr %4) #3
  %9 = getelementptr inbounds nuw %"class.facebook::yoga::Node", ptr %8, i32 0, i32 10
  store ptr %9, ptr %4, align 8, !tbaa !82
  call void @llvm.lifetime.start.p0(i64 8, ptr %5) #3
  %10 = load ptr, ptr %4, align 8, !tbaa !82
  %11 = call ptr @_ZNSt6vectorIPN8facebook4yoga4NodeESaIS3_EE5beginEv(ptr noundef nonnull align 8 dereferenceable(24) %10) #3
  %12 = getelementptr inbounds nuw %"class.__gnu_cxx::__normal_iterator", ptr %5, i32 0, i32 0
  store ptr %11, ptr %12, align 8
  call void @llvm.lifetime.start.p0(i64 8, ptr %6) #3
  %13 = load ptr, ptr %4, align 8, !tbaa !82
  %14 = call ptr @_ZNSt6vectorIPN8facebook4yoga4NodeESaIS3_EE3endEv(ptr noundef nonnull align 8 dereferenceable(24) %13) #3
  %15 = getelementptr inbounds nuw %"class.__gnu_cxx::__normal_iterator", ptr %6, i32 0, i32 0
  store ptr %14, ptr %15, align 8
  br label %16

16:                                               ; preds = %40, %1
  %17 = call noundef zeroext i1 @_ZN9__gnu_cxxeqIPPN8facebook4yoga4NodeESt6vectorIS4_SaIS4_EEEEbRKNS_17__normal_iteratorIT_T0_EESE_QrqXeqcldtfp_4baseEcldtfp0_4baseERSt14convertible_toIbEE(ptr noundef nonnull align 8 dereferenceable(8) %5, ptr noundef nonnull align 8 dereferenceable(8) %6) #3
  %18 = xor i1 %17, true
  br i1 %18, label %20, label %19

19:                                               ; preds = %16
  call void @llvm.lifetime.end.p0(i64 8, ptr %6) #3
  call void @llvm.lifetime.end.p0(i64 8, ptr %5) #3
  call void @llvm.lifetime.end.p0(i64 8, ptr %4) #3
  br label %42

20:                                               ; preds = %16
  call void @llvm.lifetime.start.p0(i64 8, ptr %7) #3
  %21 = call noundef nonnull align 8 dereferenceable(8) ptr @_ZNK9__gnu_cxx17__normal_iteratorIPPN8facebook4yoga4NodeESt6vectorIS4_SaIS4_EEEdeEv(ptr noundef nonnull align 8 dereferenceable(8) %5) #3
  store ptr %21, ptr %7, align 8, !tbaa !94
  %22 = load ptr, ptr %7, align 8, !tbaa !94
  %23 = load ptr, ptr %22, align 8, !tbaa !4
  %24 = call noundef ptr @_ZNK8facebook4yoga4Node8getOwnerEv(ptr noundef nonnull align 8 dereferenceable(584) %23)
  %25 = icmp ne ptr %24, %8
  br i1 %25, label %26, label %37

26:                                               ; preds = %20
  %27 = getelementptr inbounds nuw %"class.facebook::yoga::Node", ptr %8, i32 0, i32 11
  %28 = load ptr, ptr %27, align 8, !tbaa !65
  %29 = load ptr, ptr %7, align 8, !tbaa !94
  %30 = load ptr, ptr %29, align 8, !tbaa !4
  %31 = load i64, ptr %3, align 8, !tbaa !108
  %32 = call noundef ptr @_ZNK8facebook4yoga6Config9cloneNodeEPK6YGNodeS4_m(ptr noundef nonnull align 8 dereferenceable(48) %28, ptr noundef %30, ptr noundef %8, i64 noundef %31)
  %33 = call noundef ptr @_ZN8facebook4yoga10resolveRefEP6YGNode(ptr noundef %32)
  %34 = load ptr, ptr %7, align 8, !tbaa !94
  store ptr %33, ptr %34, align 8, !tbaa !4
  %35 = load ptr, ptr %7, align 8, !tbaa !94
  %36 = load ptr, ptr %35, align 8, !tbaa !4
  call void @_ZN8facebook4yoga4Node8setOwnerEPS1_(ptr noundef nonnull align 8 dereferenceable(584) %36, ptr noundef %8)
  br label %37

37:                                               ; preds = %26, %20
  %38 = load i64, ptr %3, align 8, !tbaa !108
  %39 = add i64 %38, 1
  store i64 %39, ptr %3, align 8, !tbaa !108
  call void @llvm.lifetime.end.p0(i64 8, ptr %7) #3
  br label %40

40:                                               ; preds = %37
  %41 = call noundef nonnull align 8 dereferenceable(8) ptr @_ZN9__gnu_cxx17__normal_iteratorIPPN8facebook4yoga4NodeESt6vectorIS4_SaIS4_EEEppEv(ptr noundef nonnull align 8 dereferenceable(8) %5) #3
  br label %16

42:                                               ; preds = %19
  call void @llvm.lifetime.end.p0(i64 8, ptr %3) #3
  ret void
}