; Function Attrs: mustprogress uwtable
define void @_ZN8facebook4yoga4Node21cloneChildrenIfNeededEv(ptr noundef nonnull align 8 dereferenceable(584) %0) local_unnamed_addr #3 align 2 {
  %2 = getelementptr inbounds nuw i8, ptr %0, i64 536
  %3 = load ptr, ptr %2, align 8, !tbaa !93
  %4 = getelementptr inbounds nuw i8, ptr %0, i64 544
  %5 = load ptr, ptr %4, align 8, !tbaa !93
  %6 = icmp eq ptr %3, %5
  br i1 %6, label %._crit_edge, label %.lr.ph

.lr.ph:                                           ; preds = %1
  %7 = getelementptr inbounds nuw i8, ptr %0, i64 560
  br label %8

._crit_edge:                                      ; preds = %16, %1
  ret void

8:                                                ; preds = %.lr.ph, %16
  %.013 = phi i64 [ 0, %.lr.ph ], [ %17, %16 ]
  %.sroa.09.012 = phi ptr [ %3, %.lr.ph ], [ %18, %16 ]
  %9 = load ptr, ptr %.sroa.09.012, align 8, !tbaa !94
  %10 = getelementptr inbounds nuw i8, ptr %9, i64 528
  %11 = load ptr, ptr %10, align 8, !tbaa !90
  %.not = icmp eq ptr %11, %0
  br i1 %.not, label %16, label %12

12:                                               ; preds = %8
  %13 = load ptr, ptr %7, align 8, !tbaa !21
  %14 = tail call noundef ptr @_ZNK8facebook4yoga6Config9cloneNodeEPK6YGNodeS4_m(ptr noundef nonnull align 8 dereferenceable(48) %13, ptr noundef nonnull %9, ptr noundef nonnull %0, i64 noundef %.013)
  store ptr %14, ptr %.sroa.09.012, align 8, !tbaa !94
  %15 = getelementptr inbounds nuw i8, ptr %14, i64 528
  store ptr %0, ptr %15, align 8, !tbaa !90
  br label %16

16:                                               ; preds = %12, %8
  %17 = add i64 %.013, 1
  %18 = getelementptr inbounds nuw i8, ptr %.sroa.09.012, i64 8
  %19 = icmp eq ptr %18, %5
  br i1 %19, label %._crit_edge, label %8
}